; Function Attrs: mustprogress uwtable
define void @_ZN6icu_7522CompoundTransliterator7joinIDsEPKPNS_14TransliteratorEi(ptr noalias sret(%"class.icu_75::UnicodeString") align 8 %agg.result, ptr nocapture noundef nonnull readnone align 8 dereferenceable(104) %this, ptr nocapture noundef readonly %transliterators, i32 noundef %transCount) local_unnamed_addr #1 align 2 personality ptr @__gxx_personality_v0 {
entry:
  %srcChar.addr.i = alloca i16, align 2
  store ptr getelementptr inbounds ({ [13 x ptr] }, ptr @_ZTVN6icu_7513UnicodeStringE, i64 0, i32 0, i64 2), ptr %agg.result, align 8
  %fUnion2.i = getelementptr inbounds i8, ptr %agg.result, i64 8
  store i16 2, ptr %fUnion2.i, align 8
  %cmp6 = icmp sgt i32 %transCount, 0
  br i1 %cmp6, label %for.body.preheader, label %nrvo.skipdtor

for.body.preheader:                               ; preds = %entry
  %wide.trip.count = zext nneg i32 %transCount to i64
  br label %for.body

for.body:                                         ; preds = %for.body.preheader, %for.inc
  %indvars.iv = phi i64 [ 0, %for.body.preheader ], [ %indvars.iv.next, %for.inc ]
  %cmp2.not = icmp eq i64 %indvars.iv, 0
  br i1 %cmp2.not, label %if.end, label %if.then

if.then:                                          ; preds = %for.body
  call void @llvm.lifetime.start.p0(i64 2, ptr nonnull %srcChar.addr.i)
  store i16 59, ptr %srcChar.addr.i, align 2
  %call.i4 = invoke noundef nonnull align 8 dereferenceable(64) ptr @_ZN6icu_7513UnicodeString8doAppendEPKDsii(ptr noundef nonnull align 8 dereferenceable(64) %agg.result, ptr noundef nonnull %srcChar.addr.i, i32 noundef 0, i32 noundef 1)
          to label %_ZN6icu_7513UnicodeString6appendEDs.exit unwind label %lpad

_ZN6icu_7513UnicodeString6appendEDs.exit:         ; preds = %if.then
  call void @llvm.lifetime.end.p0(i64 2, ptr nonnull %srcChar.addr.i)
  br label %if.end

lpad:                                             ; preds = %invoke.cont3, %if.then, %if.end
  %0 = landingpad { ptr, i32 }
          cleanup
  call void @_ZN6icu_7513UnicodeStringD1Ev(ptr noundef nonnull align 8 dereferenceable(64) %agg.result) #13
  resume { ptr, i32 } %0

if.end:                                           ; preds = %_ZN6icu_7513UnicodeString6appendEDs.exit, %for.body
  %arrayidx = getelementptr inbounds ptr, ptr %transliterators, i64 %indvars.iv
  %1 = load ptr, ptr %arrayidx, align 8
  %vtable = load ptr, ptr %1, align 8
  %vfn = getelementptr inbounds i8, ptr %vtable, i64 104
  %2 = load ptr, ptr %vfn, align 8
  %call4 = invoke noundef nonnull align 8 dereferenceable(64) ptr %2(ptr noundef nonnull align 8 dereferenceable(84) %1)
          to label %invoke.cont3 unwind label %lpad

invoke.cont3:                                     ; preds = %if.end
  %fUnion.i.i.i = getelementptr inbounds i8, ptr %call4, i64 8
  %3 = load i16, ptr %fUnion.i.i.i, align 8
  %cmp.i.i.i = icmp slt i16 %3, 0
  %4 = ashr i16 %3, 5
  %shr.i.i.i = sext i16 %4 to i32
  %fLength.i.i = getelementptr inbounds i8, ptr %call4, i64 12
  %5 = load i32, ptr %fLength.i.i, align 4
  %cond.i.i = select i1 %cmp.i.i.i, i32 %5, i32 %shr.i.i.i
  %call2.i5 = invoke noundef nonnull align 8 dereferenceable(64) ptr @_ZN6icu_7513UnicodeString8doAppendERKS0_ii(ptr noundef nonnull align 8 dereferenceable(64) %agg.result, ptr noundef nonnull align 8 dereferenceable(64) %call4, i32 noundef 0, i32 noundef %cond.i.i)
          to label %for.inc unwind label %lpad

for.inc:                                          ; preds = %invoke.cont3
  %indvars.iv.next = add nuw nsw i64 %indvars.iv, 1
  %exitcond.not = icmp eq i64 %indvars.iv.next, %wide.trip.count
  br i1 %exitcond.not, label %nrvo.skipdtor, label %for.body, !llvm.loop !7

nrvo.skipdtor:                                    ; preds = %for.inc, %entry
  ret void
}